; Function Attrs: nounwind uwtable
define dso_local i32 @bsearch_one_midx(ptr noundef %0, ptr noundef readonly captures(none) %1, ptr noundef %2) local_unnamed_addr #1 {
  %4 = getelementptr inbounds nuw i8, ptr %1, i64 112
  %5 = load ptr, ptr %4, align 8, !tbaa !67
  %6 = getelementptr inbounds nuw i8, ptr %1, i64 120
  %7 = load ptr, ptr %6, align 8, !tbaa !4
  %8 = getelementptr inbounds nuw i8, ptr %1, i64 200
  %9 = load ptr, ptr %8, align 8, !tbaa !11
  %10 = getelementptr inbounds nuw i8, ptr %9, i64 400
  %11 = load ptr, ptr %10, align 8, !tbaa !13
  %12 = getelementptr inbounds nuw i8, ptr %11, i64 16
  %13 = load i64, ptr %12, align 8, !tbaa !32
  %14 = tail call i32 @bsearch_hash(ptr noundef %0, ptr noundef %5, ptr noundef %7, i64 noundef %13, ptr noundef %2) #22
  %.not = icmp eq ptr %2, null
  br i1 %.not, label %20, label %15

15:                                               ; preds = %3
  %16 = getelementptr inbounds nuw i8, ptr %1, i64 176
  %17 = load i32, ptr %16, align 8, !tbaa !41
  %18 = load i32, ptr %2, align 4, !tbaa !41
  %19 = add i32 %18, %17
  store i32 %19, ptr %2, align 4, !tbaa !41
  br label %20

20:                                               ; preds = %15, %3
  ret i32 %14
}